target datalayout = "e-m:e-p270:32:32-p271:32:32-p272:64:64-i64:64-i128:128-f80:128-n8:16:32:64-S128"
target triple = "x86_64-pc-linux-gnu"

%"class.cv::cuda::GpuMat" = type { i32, i32, i32, i64, ptr, ptr, ptr, ptr, ptr }
%"class.opencv_test::(anonymous namespace)::OneFrameSource_CUDA" = type { %"class.cv::superres::FrameSource", %"class.cv::cuda::GpuMat" }
%"class.cv::superres::FrameSource" = type { ptr }

; Function Attrs: inlinehint mustprogress nounwind uwtable
define linkonce_odr hidden void @_ZN2cv4cuda6GpuMatD2Ev(ptr noundef nonnull align 8 dereferenceable(64) %0) unnamed_addr #4 comdat align 2 personality ptr @__gxx_personality_v0 {
  %2 = alloca ptr, align 8
  store ptr %0, ptr %2, align 8, !tbaa !100
  %3 = load ptr, ptr %2, align 8
  invoke void @_ZN2cv4cuda6GpuMat7releaseEv(ptr noundef nonnull align 8 dereferenceable(64) %3)
          to label %4 unwind label %5

4:                                                ; preds = %1
  ret void

5:                                                ; preds = %1
  %6 = landingpad { ptr, i32 }
          catch ptr null
  %7 = extractvalue { ptr, i32 } %6, 0
  call void @__clang_call_terminate(ptr %7) #28
  unreachable
}

; Function Attrs: inlinehint mustprogress nounwind uwtable
define internal void @_ZN11opencv_test12_GLOBAL__N_119OneFrameSource_CUDAD2Ev(ptr noundef nonnull align 8 dereferenceable(72) %0) unnamed_addr #4 align 2 {
  %2 = alloca ptr, align 8
  store ptr %0, ptr %2, align 8, !tbaa !673
  %3 = load ptr, ptr %2, align 8
  store ptr getelementptr inbounds inrange(-16, 32) ({ [6 x ptr] }, ptr @_ZTVN11opencv_test12_GLOBAL__N_119OneFrameSource_CUDAE, i32 0, i32 0, i32 2), ptr %3, align 8, !tbaa !20
  %4 = getelementptr inbounds nuw %"class.opencv_test::(anonymous namespace)::OneFrameSource_CUDA", ptr %3, i32 0, i32 1
  call void @_ZN2cv4cuda6GpuMatD2Ev(ptr noundef nonnull align 8 dereferenceable(64) %4) #3
  call void @_ZN2cv8superres11FrameSourceD2Ev(ptr noundef nonnull align 8 dereferenceable(8) %3) #3
  ret void
}